; ModuleID = '62/2382.cpp'
source_filename = "62/2382.cpp"
target datalayout = "e-m:e-p270:32:32-p271:32:32-p272:64:64-i64:64-f80:128-n8:16:32:64-S128"
target triple = "x86_64-pc-linux-gnu"

%"class.std::ios_base::Init" = type { i8 }
%"class.std::basic_ostream" = type { i32 (...)**, %"class.std::basic_ios" }
%"class.std::basic_ios" = type { %"class.std::ios_base", %"class.std::basic_ostream"*, i8, i8, %"class.std::basic_streambuf"*, %"class.std::ctype"*, %"class.std::num_put"*, %"class.std::num_get"* }
%"class.std::ios_base" = type { i32 (...)**, i64, i64, i32, i32, i32, %"struct.std::ios_base::_Callback_list"*, %"struct.std::ios_base::_Words", [8 x %"struct.std::ios_base::_Words"], i32, %"struct.std::ios_base::_Words"*, %"class.std::locale" }
%"struct.std::ios_base::_Callback_list" = type { %"struct.std::ios_base::_Callback_list"*, void (i32, %"class.std::ios_base"*, i32)*, i32, i32 }
%"struct.std::ios_base::_Words" = type { i8*, i64 }
%"class.std::locale" = type { %"class.std::locale::_Impl"* }
%"class.std::locale::_Impl" = type { i32, %"class.std::locale::facet"**, i64, %"class.std::locale::facet"**, i8** }
%"class.std::locale::facet" = type <{ i32 (...)**, i32, [4 x i8] }>
%"class.std::basic_streambuf" = type { i32 (...)**, i8*, i8*, i8*, i8*, i8*, i8*, %"class.std::locale" }
%"class.std::ctype" = type <{ %"class.std::locale::facet.base", [4 x i8], %struct.__locale_struct*, i8, [7 x i8], i32*, i32*, i16*, i8, [256 x i8], [256 x i8], i8, [6 x i8] }>
%"class.std::locale::facet.base" = type <{ i32 (...)**, i32 }>
%struct.__locale_struct = type { [13 x %struct.__locale_data*], i16*, i32*, i32*, [13 x i8*] }
%struct.__locale_data = type opaque
%"class.std::num_put" = type { %"class.std::locale::facet.base", [4 x i8] }
%"class.std::num_get" = type { %"class.std::locale::facet.base", [4 x i8] }

@_ZStL8__ioinit = internal global %"class.std::ios_base::Init" zeroinitializer, align 1
@__dso_handle = external hidden global i8
@_ZSt4cout = external dso_local global %"class.std::basic_ostream", align 8
@llvm.global_ctors = appending global [1 x { i32, void ()*, i8* }] [{ i32, void ()*, i8* } { i32 65535, void ()* @_GLOBAL__sub_I_2382.cpp, i8* null }]

; Function Attrs: noinline uwtable
define internal void @__cxx_global_var_init() #0 section ".text.startup" {
  call void @_ZNSt8ios_base4InitC1Ev(%"class.std::ios_base::Init"* @_ZStL8__ioinit)
  %1 = call i32 @__cxa_atexit(void (i8*)* bitcast (void (%"class.std::ios_base::Init"*)* @_ZNSt8ios_base4InitD1Ev to void (i8*)*), i8* getelementptr inbounds (%"class.std::ios_base::Init", %"class.std::ios_base::Init"* @_ZStL8__ioinit, i32 0, i32 0), i8* @__dso_handle) #3
  ret void
}

declare dso_local void @_ZNSt8ios_base4InitC1Ev(%"class.std::ios_base::Init"*) unnamed_addr #1

; Function Attrs: nounwind
declare dso_local void @_ZNSt8ios_base4InitD1Ev(%"class.std::ios_base::Init"*) unnamed_addr #2

; Function Attrs: nounwind
declare dso_local i32 @__cxa_atexit(void (i8*)*, i8*, i8*) #3

; Function Attrs: noinline norecurse uwtable
define dso_local i32 @main() #4 {
  %1 = alloca i32, align 4
  %2 = alloca i8, align 1
  %3 = alloca [10000 x i8], align 16
  %4 = alloca i32, align 4
  %5 = alloca i32, align 4
  %6 = alloca i32, align 4
  %7 = alloca i32, align 4
  %8 = alloca i32, align 4
  %9 = alloca i32, align 4
  %10 = alloca [100000 x i32], align 16
  store i32 0, i32* %1, align 4
  %11 = bitcast [10000 x i8]* %3 to i8*
  call void @llvm.memset.p0i8.i64(i8* align 16 %11, i8 0, i64 10000, i1 false)
  store i32 0, i32* %4, align 4
  store i32 0, i32* %6, align 4
  store i32 0, i32* %7, align 4
  store i32 0, i32* %8, align 4
  br label %12

12:                                               ; preds = %17, %0
  %13 = call i32 @getchar()
  %14 = trunc i32 %13 to i8
  store i8 %14, i8* %2, align 1
  %15 = sext i8 %14 to i32
  %16 = icmp ne i32 %15, 10
  br i1 %16, label %17, label %24

17:                                               ; preds = %12
  %18 = load i8, i8* %2, align 1
  %19 = load i32, i32* %4, align 4
  %20 = sext i32 %19 to i64
  %21 = getelementptr inbounds [10000 x i8], [10000 x i8]* %3, i64 0, i64 %20
  store i8 %18, i8* %21, align 1
  %22 = load i32, i32* %4, align 4
  %23 = add nsw i32 %22, 1
  store i32 %23, i32* %4, align 4
  br label %12

24:                                               ; preds = %12
  store i32 0, i32* %5, align 4
  br label %25

25:                                               ; preds = %52, %24
  %26 = load i32, i32* %5, align 4
  %27 = load i32, i32* %4, align 4
  %28 = icmp slt i32 %26, %27
  br i1 %28, label %29, label %55

29:                                               ; preds = %25
  %30 = load i32, i32* %5, align 4
  %31 = sext i32 %30 to i64
  %32 = getelementptr inbounds [10000 x i8], [10000 x i8]* %3, i64 0, i64 %31
  %33 = load i8, i8* %32, align 1
  %34 = sext i8 %33 to i32
  %35 = icmp eq i32 %34, 32
  br i1 %35, label %36, label %51

36:                                               ; preds = %29
  %37 = load i32, i32* %5, align 4
  %38 = sub nsw i32 %37, 1
  %39 = sext i32 %38 to i64
  %40 = getelementptr inbounds [10000 x i8], [10000 x i8]* %3, i64 0, i64 %39
  %41 = load i8, i8* %40, align 1
  %42 = sext i8 %41 to i32
  %43 = icmp eq i32 %42, 32
  br i1 %43, label %44, label %51

44:                                               ; preds = %36
  %45 = load i32, i32* %5, align 4
  %46 = load i32, i32* %6, align 4
  %47 = sext i32 %46 to i64
  %48 = getelementptr inbounds [100000 x i32], [100000 x i32]* %10, i64 0, i64 %47
  store i32 %45, i32* %48, align 4
  %49 = load i32, i32* %6, align 4
  %50 = add nsw i32 %49, 1
  store i32 %50, i32* %6, align 4
  br label %51

51:                                               ; preds = %44, %36, %29
  br label %52

52:                                               ; preds = %51
  %53 = load i32, i32* %5, align 4
  %54 = add nsw i32 %53, 1
  store i32 %54, i32* %5, align 4
  br label %25

55:                                               ; preds = %25
  store i32 0, i32* %5, align 4
  br label %56

56:                                               ; preds = %91, %55
  %57 = load i32, i32* %5, align 4
  %58 = load i32, i32* %4, align 4
  %59 = icmp slt i32 %57, %58
  br i1 %59, label %60, label %94

60:                                               ; preds = %56
  store i32 0, i32* %8, align 4
  store i32 0, i32* %7, align 4
  br label %61

61:                                               ; preds = %78, %60
  %62 = load i32, i32* %7, align 4
  %63 = load i32, i32* %6, align 4
  %64 = icmp slt i32 %62, %63
  br i1 %64, label %65, label %81

65:                                               ; preds = %61
  %66 = load i32, i32* %5, align 4
  %67 = load i32, i32* %7, align 4
  %68 = sext i32 %67 to i64
  %69 = getelementptr inbounds [100000 x i32], [100000 x i32]* %10, i64 0, i64 %68
  %70 = load i32, i32* %69, align 4
  %71 = icmp ne i32 %66, %70
  br i1 %71, label %72, label %73

72:                                               ; preds = %65
  store i32 0, i32* %9, align 4
  br label %74

73:                                               ; preds = %65
  store i32 1, i32* %9, align 4
  br label %74

74:                                               ; preds = %73, %72
  %75 = load i32, i32* %8, align 4
  %76 = load i32, i32* %9, align 4
  %77 = add nsw i32 %75, %76
  store i32 %77, i32* %8, align 4
  br label %78

78:                                               ; preds = %74
  %79 = load i32, i32* %7, align 4
  %80 = add nsw i32 %79, 1
  store i32 %80, i32* %7, align 4
  br label %61

81:                                               ; preds = %61
  %82 = load i32, i32* %8, align 4
  %83 = icmp eq i32 %82, 0
  br i1 %83, label %84, label %90

84:                                               ; preds = %81
  %85 = load i32, i32* %5, align 4
  %86 = sext i32 %85 to i64
  %87 = getelementptr inbounds [10000 x i8], [10000 x i8]* %3, i64 0, i64 %86
  %88 = load i8, i8* %87, align 1
  %89 = call dereferenceable(272) %"class.std::basic_ostream"* @_ZStlsISt11char_traitsIcEERSt13basic_ostreamIcT_ES5_c(%"class.std::basic_ostream"* dereferenceable(272) @_ZSt4cout, i8 signext %88)
  br label %90

90:                                               ; preds = %84, %81
  br label %91

91:                                               ; preds = %90
  %92 = load i32, i32* %5, align 4
  %93 = add nsw i32 %92, 1
  store i32 %93, i32* %5, align 4
  br label %56

94:                                               ; preds = %56
  ret i32 0
}

; Function Attrs: argmemonly nounwind willreturn
declare void @llvm.memset.p0i8.i64(i8* nocapture writeonly, i8, i64, i1 immarg) #5

declare dso_local i32 @getchar() #1

declare dso_local dereferenceable(272) %"class.std::basic_ostream"* @_ZStlsISt11char_traitsIcEERSt13basic_ostreamIcT_ES5_c(%"class.std::basic_ostream"* dereferenceable(272), i8 signext) #1

; Function Attrs: noinline uwtable
define internal void @_GLOBAL__sub_I_2382.cpp() #0 section ".text.startup" {
  call void @__cxx_global_var_init()
  ret void
}


!llvm.module.flags = !{!0}
!llvm.ident = !{!1}

!0 = !{i32 1, !"wchar_size", i32 4}
!1 = !{!"clang version 10.0.0-4ubuntu1 "}
